Certificate:
    Data:
        Version: 3 (0x2)
        Serial Number: 2 (0x2)
        Signature Algorithm: sha256WithRSAEncryption
        Issuer: C=VI, ST=BRVT, L=BRVT, O=XLotus, OU=XLotus.IT, CN=XLotus CA/emailAddress=luunamtenn@gmail.com
        Validity
            Not Before: Jan 20 15:22:18 2021 GMT
            Not After : Oct 17 15:22:18 2023 GMT
        Subject: C=VI, ST=HCM, L=HCM city, O=Lotus, OU=Lotus.IT, CN=saiwks1812.sai.gameloft.org
        Subject Public Key Info:
            Public Key Algorithm: rsaEncryption
                RSA Public-Key: (2048 bit)
                Modulus:
                    00:87:4f:86:aa:fd:74:c3:04:d3:12:dd:ee:b6:9a:
                    27:3a:c3:e1:fd:fe:17:4e:ee:c2:20:5a:2f:75:0c:
                    8b:54:1f:5a:aa:bf:b9:19:9e:93:9e:87:58:09:e6:
                    a5:30:0e:98:d4:eb:21:b3:b2:c6:a8:9f:f1:e0:5f:
                    bd:f8:9a:5e:70:04:e9:77:63:f2:93:09:30:d7:98:
                    17:b6:a1:b0:53:69:3d:31:f0:d8:2d:a6:93:c1:ee:
                    c2:d7:7d:15:ea:02:e2:c1:e1:fd:89:56:43:c3:b5:
                    5b:5d:21:a8:18:85:4e:3a:81:9d:c3:55:26:8d:19:
                    ac:a0:82:1e:00:4c:fc:51:e0:91:17:3b:e9:67:8f:
                    a9:55:81:07:5d:f8:00:26:74:d2:43:b6:a3:a2:72:
                    b5:35:91:51:13:3c:93:09:8f:37:cf:31:fe:18:b3:
                    31:34:09:ff:d7:58:86:a3:ab:34:7b:10:99:e9:ce:
                    63:d4:dd:5d:91:79:44:c2:0b:f6:19:81:82:60:9f:
                    ec:f1:c4:eb:fa:d1:36:ac:6c:ed:a8:ac:86:0d:e9:
                    a0:9c:8a:aa:60:88:79:38:62:23:c6:eb:cb:63:b3:
                    89:55:f7:78:04:fd:38:10:4d:6e:ed:25:ec:6e:04:
                    9e:22:f4:82:f6:fc:e7:7a:fe:45:57:4f:a0:ab:a8:
                    c7:c9
                Exponent: 65537 (0x10001)
        X509v3 extensions:
            X509v3 Subject Key Identifier: 
                71:5A:36:64:37:77:5B:9E:4D:98:FE:A6:5D:CB:63:65:61:A9:AA:95
            X509v3 Authority Key Identifier: 
                72:71:6F:48:B8:D0:BB:C8:A9:92:76:47:8E:3A:01:30:C0:DA:4D:16
            X509v3 Basic Constraints: 
                CA:FALSE
            X509v3 Key Usage: 
                Digital Signature, Key Encipherment
            X509v3 Subject Alternative Name: 
                DNS:saiwks1812.sai.gameloft.org
            Netscape Comment: 
                OpenSSL Generated Certificate
    Signature Algorithm: sha256WithRSAEncryption
    Signature Value:
        22:6c:fa:86:dc:ef:08:95:b3:2d:4b:61:15:22:a2:b0:2d:1a:
        8f:40:a8:ff:f7:11:89:29:02:09:c1:03:3e:91:2a:5b:62:d6:
        c3:37:ae:90:4a:9d:03:55:58:75:69:ec:33:77:6b:53:eb:a1:
        38:94:e3:09:f2:06:5d:a2:0a:3d:93:81:81:e4:c4:ea:38:73:
        e5:b0:98:c0:2d:b6:23:36:5e:ea:bf:46:12:11:df:de:fd:7b:
        ae:28:58:2a:2c:e8:25:e7:8a:3e:36:78:c3:fc:9f:f7:55:d6:
        77:2b:db:f8:e6:7a:4d:0f:13:96:5c:ce:51:27:42:15:1a:35:
        a1:a7:48:2b:7d:6b:48:8b:09:ee:01:9b:be:37:57:84:42:4a:
        7e:17:55:a4:7e:0f:eb:f4:44:eb:38:c6:b6:7c:40:dc:4c:fa:
        89:c7:00:55:74:cc:c2:0d:22:1a:74:4b:6f:76:0d:e8:8b:bf:
        dd:de:f2:a4:22:82:eb:1c:24:a8:c6:c4:a8:fb:91:1b:40:e7:
        e1:a5:0d:e7:30:8f:df:a0:bf:17:5b:6c:04:0e:93:1d:f6:84:
        38:57:ff:57:d7:51:0b:f4:dc:9c:0e:50:4e:ed:93:63:65:d1:
        c8:59:f1:96:c2:ec:68:b1:0e:d6:ca:25:d2:12:be:cc:4d:ba:
        15:b2:69:4b:a8:74:5b:a5:c4:7b:39:be:b3:2f:fe:1f:32:5a:
        e9:a0:b5:47:7e:f6:ba:d5:de:ce:b9:37:ca:ea:1c:c3:4e:fd:
        b5:4b:a4:59:09:db:b1:b4:d1:81:f8:9e:47:23:1f:03:a2:a8:
        b9:67:5a:ae:48:14:84:17:25:41:75:eb:d2:68:b9:02:00:33:
        b1:86:51:d7:fc:75:22:50:57:c5:76:25:d2:ec:ca:69:2f:d4:
        4a:69:a0:e8:e1:b8:6f:21:72:1a:fd:27:09:1d:66:5b:2c:97:
        c5:15:2d:29:83:cb:2f:3d:ac:ac:54:90:47:ff:8b:ff:ad:29:
        43:a3:6e:82:e9:85:80:dd:b8:ba:be:f3:92:ce:a6:82:b0:21:
        fe:da:06:29:e3:77:0c:52:01:6b:1b:1d:82:01:79:03:ca:d0:
        ba:c0:2f:8e:d6:5d:93:a7:e5:ab:ed:98:0e:4f:13:6a:7b:a7:
        4c:13:ba:95:73:cb:18:fb:bd:0f:38:e7:98:56:af:3a:3b:23:
        d0:fb:5a:7d:fd:e0:bf:ef:c4:c2:34:93:58:55:e7:8c:f9:aa:
        5e:be:cd:be:19:b6:e3:0a:fd:a2:2c:5f:42:f6:7a:00:cb:33:
        d9:b8:46:8f:e7:11:1b:3a:61:1e:5a:85:18:9f:95:42:ff:b8:
        83:2d:61:29:4b:e2:10:05
-----BEGIN CERTIFICATE-----
MIIFKjCCAxSgAwIBAgIBAjALBgkqhkiG9w0BAQswgYkxCzAJBgNVBAYTAlZJMQ0w
CwYDVQQIDARCUlZUMQ0wCwYDVQQHDARCUlZUMQ8wDQYDVQQKDAZYTG90dXMxEjAQ
BgNVBAsMCVhMb3R1cy5JVDESMBAGA1UEAwwJWExvdHVzIENBMSMwIQYJKoZIhvcN
AQkBFhRsdXVuYW10ZW5uQGdtYWlsLmNvbTAeFw0yMTAxMjAxNTIyMThaFw0yMzEw
MTcxNTIyMThaMHcxCzAJBgNVBAYTAlZJMQwwCgYDVQQIDANIQ00xETAPBgNVBAcM
CEhDTSBjaXR5MQ4wDAYDVQQKDAVMb3R1czERMA8GA1UECwwITG90dXMuSVQxJDAi
BgNVBAMMG3NhaXdrczE4MTIuc2FpLmdhbWVsb2Z0Lm9yZzCCASIwDQYJKoZIhvcN
AQEBBQADggEPADCCAQoCggEBAIdPhqr9dMME0xLd7raaJzrD4f3+F07uwiBaL3UM
i1QfWqq/uRmek56HWAnmpTAOmNTrIbOyxqif8eBfvfiaXnAE6Xdj8pMJMNeYF7ah
sFNpPTHw2C2mk8Huwtd9FeoC4sHh/YlWQ8O1W10hqBiFTjqBncNVJo0ZrKCCHgBM
/FHgkRc76WePqVWBB134ACZ00kO2o6JytTWRURM8kwmPN88x/hizMTQJ/9dYhqOr
NHsQmenOY9TdXZF5RMIL9hmBgmCf7PHE6/rRNqxs7aishg3poJyKqmCIeThiI8br
y2OziVX3eAT9OBBNbu0l7G4EniL0gvb853r+RVdPoKuox8kCAwEAAaOBsTCBrjAd
BgNVHQ4EFgQUcVo2ZDd3W55NmP6mXctjZWGpqpUwHwYDVR0jBBgwFoAUcnFvSLjQ
u8ipknZHjjoBMMDaTRYwCQYDVR0TBAIwADALBgNVHQ8EBAMCBaAwJgYDVR0RBB8w
HYIbc2Fpd2tzMTgxMi5zYWkuZ2FtZWxvZnQub3JnMCwGCWCGSAGG+EIBDQQfFh1P
cGVuU1NMIEdlbmVyYXRlZCBDZXJ0aWZpY2F0ZTALBgkqhkiG9w0BAQsDggIBACJs
+obc7wiVsy1LYRUiorAtGo9AqP/3EYkpAgnBAz6RKlti1sM3rpBKnQNVWHVp7DN3
a1ProTiU4wnyBl2iCj2TgYHkxOo4c+WwmMAttiM2Xuq/RhIR3979e64oWCos6CXn
ij42eMP8n/dV1ncr2/jmek0PE5ZczlEnQhUaNaGnSCt9a0iLCe4Bm743V4RCSn4X
VaR+D+v0ROs4xrZ8QNxM+onHAFV0zMINIhp0S292DeiLv93e8qQiguscJKjGxKj7
kRtA5+GlDecwj9+gvxdbbAQOkx32hDhX/1fXUQv03JwOUE7tk2Nl0chZ8ZbC7Gix
DtbKJdISvsxNuhWyaUuodFulxHs5vrMv/h8yWumgtUd+9rrV3s65N8rqHMNO/bVL
pFkJ27G00YH4nkcjHwOiqLlnWq5IFIQXJUF169JouQIAM7GGUdf8dSJQV8V2JdLs
ymkv1EppoOjhuG8hchr9JwkdZlssl8UVLSmDyy89rKxUkEf/i/+tKUOjboLphYDd
uLq+85LOpoKwIf7aBinjdwxSAWsbHYIBeQPK0LrAL47WXZOn5avtmA5PE2p7p0wT
upVzyxj7vQ8455hWrzo7I9D7Wn394L/vxMI0k1hV54z5ql6+zb4ZtuMK/aIsX0L2
egDLM9m4Ro/nERs6YR5ahRiflUL/uIMtYSlL4hAF
-----END CERTIFICATE-----

